target datalayout = "e-m:e-p270:32:32-p271:32:32-p272:64:64-i64:64-i128:128-f80:128-n8:16:32:64-S128"
target triple = "x86_64-pc-linux-gnu"

%struct.addrinfo = type { i32, i32, i32, i32, i32, ptr, ptr, ptr }

; Function Attrs: nounwind uwtable
define void @evutil_freeaddrinfo(ptr noundef %0) #0 {
  %2 = alloca ptr, align 8
  %3 = alloca ptr, align 8
  %4 = alloca ptr, align 8
  %5 = alloca ptr, align 8
  store ptr %0, ptr %2, align 8
  call void @llvm.lifetime.start.p0(i64 8, ptr %3) #11
  store ptr null, ptr %3, align 8
  call void @llvm.lifetime.start.p0(i64 8, ptr %4) #11
  %6 = load ptr, ptr %2, align 8
  store ptr %6, ptr %4, align 8
  br label %7

7:                                                ; preds = %41, %1
  %8 = load ptr, ptr %4, align 8
  %9 = icmp ne ptr %8, null
  br i1 %9, label %10, label %43

10:                                               ; preds = %7
  call void @llvm.lifetime.start.p0(i64 8, ptr %5) #11
  %11 = load ptr, ptr %4, align 8
  %12 = getelementptr inbounds nuw %struct.addrinfo, ptr %11, i32 0, i32 7
  %13 = load ptr, ptr %12, align 8
  store ptr %13, ptr %5, align 8
  %14 = load ptr, ptr %4, align 8
  %15 = getelementptr inbounds nuw %struct.addrinfo, ptr %14, i32 0, i32 0
  %16 = load i32, ptr %15, align 8
  %17 = and i32 %16, -2147483648
  %18 = icmp ne i32 %17, 0
  br i1 %18, label %19, label %39

19:                                               ; preds = %10
  %20 = load ptr, ptr %4, align 8
  %21 = getelementptr inbounds nuw %struct.addrinfo, ptr %20, i32 0, i32 6
  %22 = load ptr, ptr %21, align 8
  %23 = icmp ne ptr %22, null
  br i1 %23, label %24, label %28

24:                                               ; preds = %19
  %25 = load ptr, ptr %4, align 8
  %26 = getelementptr inbounds nuw %struct.addrinfo, ptr %25, i32 0, i32 6
  %27 = load ptr, ptr %26, align 8
  call void @event_mm_free_(ptr noundef %27)
  br label %28

28:                                               ; preds = %24, %19
  %29 = load ptr, ptr %4, align 8
  call void @event_mm_free_(ptr noundef %29)
  %30 = load ptr, ptr %3, align 8
  %31 = icmp eq ptr %30, null
  br i1 %31, label %32, label %34

32:                                               ; preds = %28
  %33 = load ptr, ptr %5, align 8
  store ptr %33, ptr %2, align 8
  br label %38

34:                                               ; preds = %28
  %35 = load ptr, ptr %5, align 8
  %36 = load ptr, ptr %3, align 8
  %37 = getelementptr inbounds nuw %struct.addrinfo, ptr %36, i32 0, i32 7
  store ptr %35, ptr %37, align 8
  br label %38

38:                                               ; preds = %34, %32
  br label %41

39:                                               ; preds = %10
  %40 = load ptr, ptr %4, align 8
  store ptr %40, ptr %3, align 8
  br label %41

41:                                               ; preds = %39, %38
  %42 = load ptr, ptr %5, align 8
  store ptr %42, ptr %4, align 8
  call void @llvm.lifetime.end.p0(i64 8, ptr %5) #11
  br label %7, !llvm.loop !5

43:                                               ; preds = %7
  %44 = load ptr, ptr %2, align 8
  %45 = icmp ne ptr %44, null
  br i1 %45, label %46, label %48

46:                                               ; preds = %43
  %47 = load ptr, ptr %2, align 8
  call void @freeaddrinfo(ptr noundef %47) #11
  br label %48

48:                                               ; preds = %46, %43
  call void @llvm.lifetime.end.p0(i64 8, ptr %4) #11
  call void @llvm.lifetime.end.p0(i64 8, ptr %3) #11
  ret void
}