; Function Attrs: nounwind uwtable
define void @evutil_freeaddrinfo(ptr noundef %0) local_unnamed_addr #0 {
  %.not22 = icmp eq ptr %0, null
  br i1 %.not22, label %._crit_edge.thread, label %.lr.ph

.lr.ph:                                           ; preds = %1, %13
  %.025 = phi ptr [ %.1, %13 ], [ %0, %1 ]
  %.01524 = phi ptr [ %3, %13 ], [ %0, %1 ]
  %.01623 = phi ptr [ %.117, %13 ], [ null, %1 ]
  %2 = getelementptr inbounds nuw i8, ptr %.01524, i64 40
  %3 = load ptr, ptr %2, align 8
  %4 = load i32, ptr %.01524, align 8
  %.not20 = icmp sgt i32 %4, -1
  br i1 %.not20, label %13, label %5

5:                                                ; preds = %.lr.ph
  %6 = getelementptr inbounds nuw i8, ptr %.01524, i64 32
  %7 = load ptr, ptr %6, align 8
  %.not21 = icmp eq ptr %7, null
  br i1 %.not21, label %9, label %8

8:                                                ; preds = %5
  tail call void @event_mm_free_(ptr noundef nonnull %7) #30
  br label %9

9:                                                ; preds = %8, %5
  tail call void @event_mm_free_(ptr noundef nonnull %.01524) #30
  %10 = icmp eq ptr %.01623, null
  br i1 %10, label %13, label %11

11:                                               ; preds = %9
  %12 = getelementptr inbounds nuw i8, ptr %.01623, i64 40
  store ptr %3, ptr %12, align 8
  br label %13

13:                                               ; preds = %.lr.ph, %9, %11
  %.117 = phi ptr [ %.01623, %11 ], [ null, %9 ], [ %.01524, %.lr.ph ]
  %.1 = phi ptr [ %.025, %11 ], [ %3, %9 ], [ %.025, %.lr.ph ]
  %.not = icmp eq ptr %3, null
  br i1 %.not, label %._crit_edge, label %.lr.ph, !llvm.loop !5

._crit_edge:                                      ; preds = %13
  %.not19 = icmp eq ptr %.1, null
  br i1 %.not19, label %._crit_edge.thread, label %14

14:                                               ; preds = %._crit_edge
  tail call void @freeaddrinfo(ptr noundef nonnull %.1) #30
  br label %._crit_edge.thread

._crit_edge.thread:                               ; preds = %1, %14, %._crit_edge
  ret void
}